; Function Attrs: mustprogress nofree norecurse nosync nounwind willreturn memory(read, inaccessiblemem: none) uwtable
define noundef signext i8 @_ZN6icu_7510UnicodeSet16resemblesPatternERKNS_13UnicodeStringEi(ptr nocapture noundef nonnull readonly align 8 dereferenceable(64) %pattern, i32 noundef %pos) local_unnamed_addr #7 align 2 {
entry:
  %add = add nsw i32 %pos, 1
  %fUnion.i.i = getelementptr inbounds i8, ptr %pattern, i64 8
  %0 = load i16, ptr %fUnion.i.i, align 8
  %cmp.i.i = icmp slt i16 %0, 0
  %1 = ashr i16 %0, 5
  %shr.i.i = sext i16 %1 to i32
  %fLength.i = getelementptr inbounds i8, ptr %pattern, i64 12
  %2 = load i32, ptr %fLength.i, align 4
  %cond.i = select i1 %cmp.i.i, i32 %2, i32 %shr.i.i
  %cmp = icmp slt i32 %add, %cond.i
  %cmp.i.i5 = icmp ugt i32 %cond.i, %pos
  %or.cond = and i1 %cmp, %cmp.i.i5
  br i1 %or.cond, label %_ZNK6icu_7513UnicodeString6charAtEi.exit, label %lor.rhs

_ZNK6icu_7513UnicodeString6charAtEi.exit:         ; preds = %entry
  %3 = and i16 %0, 2
  %tobool.not.i.i.i = icmp eq i16 %3, 0
  %fBuffer.i.i.i = getelementptr inbounds i8, ptr %pattern, i64 10
  %fArray.i.i.i = getelementptr inbounds i8, ptr %pattern, i64 24
  %4 = load ptr, ptr %fArray.i.i.i, align 8
  %cond.i2.i.i = select i1 %tobool.not.i.i.i, ptr %4, ptr %fBuffer.i.i.i
  %idxprom.i.i = sext i32 %pos to i64
  %arrayidx.i.i = getelementptr inbounds i16, ptr %cond.i2.i.i, i64 %idxprom.i.i
  %5 = load i16, ptr %arrayidx.i.i, align 2
  %cmp2 = icmp eq i16 %5, 91
  br i1 %cmp2, label %lor.end, label %lor.rhs

lor.rhs:                                          ; preds = %_ZNK6icu_7513UnicodeString6charAtEi.exit, %entry
  %add.i = add nsw i32 %pos, 5
  %cmp.i = icmp sle i32 %add.i, %cond.i
  %or.cond.i = and i1 %cmp.i, %cmp.i.i5
  br i1 %or.cond.i, label %_ZNK6icu_7513UnicodeString6charAtEi.exit.i.i, label %lor.end

_ZNK6icu_7513UnicodeString6charAtEi.exit.i.i:     ; preds = %lor.rhs
  %6 = and i16 %0, 2
  %tobool.not.i.i.i.i.i = icmp eq i16 %6, 0
  %fBuffer.i.i.i.i.i = getelementptr inbounds i8, ptr %pattern, i64 10
  %fArray.i.i.i.i.i = getelementptr inbounds i8, ptr %pattern, i64 24
  %7 = load ptr, ptr %fArray.i.i.i.i.i, align 8
  %cond.i2.i.i.i.i = select i1 %tobool.not.i.i.i.i.i, ptr %7, ptr %fBuffer.i.i.i.i.i
  %idxprom.i.i.i.i = sext i32 %pos to i64
  %arrayidx.i.i.i.i = getelementptr inbounds i16, ptr %cond.i2.i.i.i.i, i64 %idxprom.i.i.i.i
  %8 = load i16, ptr %arrayidx.i.i.i.i, align 2
  switch i16 %8, label %lor.end [
    i16 91, label %land.rhs.i.i
    i16 92, label %land.rhs.i21.i
  ]

land.rhs.i.i:                                     ; preds = %_ZNK6icu_7513UnicodeString6charAtEi.exit.i.i
  %cmp.i.i8.i.i = icmp ugt i32 %cond.i, %add
  br i1 %cmp.i.i8.i.i, label %_ZN6icu_7512_GLOBAL__N_111isPOSIXOpenERKNS_13UnicodeStringEi.exit.i, label %_ZNK6icu_7513UnicodeString6charAtEi.exit.i34.i

_ZN6icu_7512_GLOBAL__N_111isPOSIXOpenERKNS_13UnicodeStringEi.exit.i: ; preds = %land.rhs.i.i
  %idxprom.i.i15.i.i = sext i32 %add to i64
  %arrayidx.i.i16.i.i = getelementptr inbounds i16, ptr %cond.i2.i.i.i.i, i64 %idxprom.i.i15.i.i
  %9 = load i16, ptr %arrayidx.i.i16.i.i, align 2
  %.not.i = icmp eq i16 %9, 58
  br i1 %.not.i, label %lor.end, label %_ZNK6icu_7513UnicodeString6charAtEi.exit.i34.i

land.rhs.i21.i:                                   ; preds = %_ZNK6icu_7513UnicodeString6charAtEi.exit.i.i
  %cmp.i.i8.i23.i = icmp ugt i32 %cond.i, %add
  br i1 %cmp.i.i8.i23.i, label %_ZN6icu_7512_GLOBAL__N_110isPerlOpenERKNS_13UnicodeStringEi.exit.i, label %lor.end

_ZN6icu_7512_GLOBAL__N_110isPerlOpenERKNS_13UnicodeStringEi.exit.i: ; preds = %land.rhs.i21.i
  %idxprom.i.i15.i25.i = sext i32 %add to i64
  %arrayidx.i.i16.i26.i = getelementptr inbounds i16, ptr %cond.i2.i.i.i.i, i64 %idxprom.i.i15.i25.i
  %10 = load i16, ptr %arrayidx.i.i16.i26.i, align 2
  %11 = and i16 %10, -33
  %.not54.i = icmp eq i16 %11, 80
  br i1 %.not54.i, label %lor.end, label %if.then.i.i10.i45.i

_ZNK6icu_7513UnicodeString6charAtEi.exit.i34.i:   ; preds = %_ZN6icu_7512_GLOBAL__N_111isPOSIXOpenERKNS_13UnicodeStringEi.exit.i, %land.rhs.i.i
  br label %lor.end

if.then.i.i10.i45.i:                              ; preds = %_ZN6icu_7512_GLOBAL__N_110isPerlOpenERKNS_13UnicodeStringEi.exit.i
  %12 = icmp eq i16 %10, 78
  %13 = zext i1 %12 to i8
  br label %lor.end

lor.end:                                          ; preds = %if.then.i.i10.i45.i, %_ZNK6icu_7513UnicodeString6charAtEi.exit.i34.i, %_ZN6icu_7512_GLOBAL__N_110isPerlOpenERKNS_13UnicodeStringEi.exit.i, %_ZN6icu_7512_GLOBAL__N_111isPOSIXOpenERKNS_13UnicodeStringEi.exit.i, %_ZNK6icu_7513UnicodeString6charAtEi.exit.i.i, %lor.rhs, %land.rhs.i21.i, %_ZNK6icu_7513UnicodeString6charAtEi.exit
  %conv4 = phi i8 [ 1, %_ZNK6icu_7513UnicodeString6charAtEi.exit ], [ 0, %lor.rhs ], [ 1, %_ZN6icu_7512_GLOBAL__N_110isPerlOpenERKNS_13UnicodeStringEi.exit.i ], [ 1, %_ZN6icu_7512_GLOBAL__N_111isPOSIXOpenERKNS_13UnicodeStringEi.exit.i ], [ 0, %_ZNK6icu_7513UnicodeString6charAtEi.exit.i34.i ], [ %13, %if.then.i.i10.i45.i ], [ 0, %_ZNK6icu_7513UnicodeString6charAtEi.exit.i.i ], [ 0, %land.rhs.i21.i ]
  ret i8 %conv4
}